target datalayout = "e-m:e-p270:32:32-p271:32:32-p272:64:64-i64:64-i128:128-f80:128-n8:16:32:64-S128"
target triple = "x86_64-pc-linux-gnu"

%struct._zval_struct = type { %union._zend_value, %union.anon, %union.anon.2 }
%union._zend_value = type { i64 }
%union.anon = type { i32 }
%union.anon.2 = type { i32 }
%struct._zend_refcounted_h = type { i32, %union.anon.3 }
%union.anon.3 = type { i32 }
%struct._zend_object = type { %struct._zend_refcounted_h, i32, i32, ptr, ptr, ptr, [1 x %struct._zval_struct] }
%struct._php_sqlite3_stmt_object = type { ptr, ptr, i8, ptr, %struct._zend_object }

; Function Attrs: nounwind uwtable
define internal i32 @php_sqlite3_compare_stmt_free(ptr noundef %0, ptr noundef %1) #0 {
  %3 = alloca ptr, align 8
  %4 = alloca ptr, align 8
  store ptr %0, ptr %3, align 8, !tbaa !156
  store ptr %1, ptr %4, align 8, !tbaa !103
  %5 = load ptr, ptr %3, align 8, !tbaa !156
  %6 = load ptr, ptr %5, align 8, !tbaa !83
  %7 = getelementptr inbounds nuw %struct._php_sqlite3_stmt_object, ptr %6, i32 0, i32 2
  %8 = load i8, ptr %7, align 8, !tbaa !88, !range !59, !noundef !60
  %9 = trunc i8 %8 to i1
  br i1 %9, label %10, label %17

10:                                               ; preds = %2
  %11 = load ptr, ptr %4, align 8, !tbaa !103
  %12 = load ptr, ptr %3, align 8, !tbaa !156
  %13 = load ptr, ptr %12, align 8, !tbaa !83
  %14 = getelementptr inbounds nuw %struct._php_sqlite3_stmt_object, ptr %13, i32 0, i32 0
  %15 = load ptr, ptr %14, align 8, !tbaa !102
  %16 = icmp eq ptr %11, %15
  br label %17

17:                                               ; preds = %10, %2
  %18 = phi i1 [ false, %2 ], [ %16, %10 ]
  %19 = zext i1 %18 to i32
  ret i32 %19
}