; Function Attrs: mustprogress nofree norecurse nosync nounwind willreturn memory(read, inaccessiblemem: none) uwtable
define internal range(i32 0, 2) i32 @php_sqlite3_compare_stmt_free(ptr noundef readonly captures(none) %0, ptr noundef readnone captures(address) %1) #7 {
  %3 = load ptr, ptr %0, align 8, !tbaa !82
  %4 = getelementptr inbounds nuw i8, ptr %3, i64 16
  %5 = load i8, ptr %4, align 8, !tbaa !88, !range !55, !noundef !56
  %6 = trunc nuw i8 %5 to i1
  br i1 %6, label %7, label %11

7:                                                ; preds = %2
  %8 = load ptr, ptr %3, align 8, !tbaa !100
  %9 = icmp eq ptr %1, %8
  %10 = zext i1 %9 to i32
  br label %11

11:                                               ; preds = %7, %2
  %12 = phi i32 [ 0, %2 ], [ %10, %7 ]
  ret i32 %12
}